(lp0
(lp1
F1.219727847790605e-29
aF1.1268165090677435e-14
aF7.512110060451627e-14
aF8.778195293808371e-14
aF1.3167292940712594e-14
aF1.1268165090677435e-14
aF8.131518985270701e-29
aF1.1268165090677435e-14
aF1.1268165090677435e-14
aa(lp2
F3.338715582422942e-12
aF3.3387155824229403e-12
aF5.008073373634419e-13
aF3.3387155824229443e-12
aF5.008073373634419e-13
aF2.9268981243404653e-23
aF3.3387155824229355e-12
aF5.008073373634419e-13
aF3.338715582422945e-12
aa(lp3
F6.255249723477842e-33
aF8.43064690577033e-33
aF8.43064690577033e-33
aF8.43064690577033e-33
aF8.43064690577033e-33
aF6.255249723477842e-33
aF1.9702692034243514e-31
aF1.9702692034243514e-31
aF1.313512802282901e-30
aa(lp4
F0.0014097827221097332
aF2.008027704496207e-06
aF0.007518146399190899
aF0.008618887796616743
aF0.01624419993355211
aF0.06936
aF0.0027893759590945644
aF2.7755575615628914e-17
aF0.03162928542802327
aa(lp5
F3.9120095571893625e-05
aF1.1774200729309787e-05
aF0.00014774583024361248
aF0.0004829745126483146
aF0.00023879845354439445
aF0.0002608006371459582
aF7.849467152873217e-05
aF0.00037873430776218936
aF0.0002608006371459582
aa(lp6
F0.0
aF1.9997429074890958e-17
aF0.0
aF1.9997429074890958e-17
aF1.999742907489096e-17
aF0.0
aF2.9996143612336326e-18
aF1.9997429074890958e-17
aF2.999614361233648e-18
aa(lp7
F0.5
aI0
aI0
aI0
aI0
aI0
aI0
aI0
aI1
aa(lp8
F0.03315503309646148
aF0.05597289790976594
aF0.02016542940582905
aF0.03302481441087435
aF0.020310863823453484
aF0.020165429405829043
aF0.019516440457800186
aF0.036774764518941766
aF0.02016542940582905
aa(lp9
F2.277832155561799e-22
aF2.277832155561799e-22
aF1.8760359375107584e-08
aF2.277832155561803e-22
aF2.277832155561799e-22
aF1.5185547703745316e-21
aF2.277832155561799e-22
aF2.277832155561799e-22
aF2.277832155561799e-22
aa(lp10
F3.901420130581497e-12
aF5.852130195872247e-13
aF3.901420130581497e-12
aF3.901420130581497e-12
aF1.126816509067794e-14
aF2.237793284010081e-16
aF1.1216061951470522e-19
aF3.9014201305814996e-12
aF3.901420130581497e-12
aa(lp11
F0.005129790466460005
aF0.16691071558436393
aF0.047707542783589796
aF0.11647660584960837
aF0.043210136445753444
aF7.706508903249087e-09
aF0.058560173673928045
aF0.05338978412304077
aF0.01671717690107713
aa(lp12
F0.001810240602223341
aF0.011443605029598226
aF0.0
aF1.541271175742055e-07
aF1.5881867761018131e-22
aF1.6940658945086007e-21
aF3.469446951953614e-18
aF5.863105140280211e-14
aF0.001810240602223341
aa(lp13
F0.04267497681420349
aF0.015356798392226173
aF0.009765802294208481
aF0.1566647131468897
aF0.00310557975907913
aF0.007483746799508487
aF0.005534505148582385
aF0.14986786895314957
aF0.015387670931428774
aa(lp14
F0.055621186781888765
aF0.10377152022273756
aF0.0038431780172833163
aF0.14436945739697638
aF0.09523036300841364
aF0.11250889077796272
aF0.03870692150603752
aF0.1560916568096701
aF0.13679404127922448
aa(lp15
F8.887746250158739e-16
aF6.426644393435042e-10
aF7.0587754391615576e-12
aF1.7437214940266988e-10
aF1.3654066312590568e-10
aF7.802685327189825e-11
aF7.802685327549814e-11
aF1.7437214940266988e-10
aF8.228539841440213e-10
aa(lp16
F0.045185784770527426
aF0.03810002964716418
aF0.02572202285667189
aF0.03810100875375018
aF0.010982296258757573
aF0.07053232857278544
aF0.032727356345612094
aF0.06457984928591781
aF0.01653232857278545
aa(lp17
F0.045259115703540076
aF0.03038816360017349
aF0.03379856513684949
aF0.03711011617524981
aF0.033839880095909755
aF0.08358886735553103
aF0.008134661088437314
aF0.03258775733448985
aF0.018396701981173477
aa(lp18
F1.162480996012849e-09
aF3.4678601454196058e-09
aF7.830453286146266e-06
aF2.951996775889536e-12
aF0.013624387229762442
aF0.013624387229762447
aF0.0
aF4.9836567779840744e-05
aF2.970045328614621e-05
aa(lp19
F5.12708982300896e-08
aF1.1389386926603595e-23
aF1.1389386926603583e-23
aF1.1389386926603583e-23
aF5.12708982300896e-08
aF1.1389386926603583e-23
aF1.1389386926603583e-23
aF3.418059882005973e-07
aF1.1389386926603595e-23
aa(lp20
F0.02627087373922292
aF0.1637038469865432
aF0.038888647918703945
aF0.11879307263057975
aF0.012751706433356685
aF0.1267494630704615
aF0.05587718713939249
aF0.15630414780380542
aF0.017777810439979072
aa(lp21
F0.022330038242696748
aI0
aF7.130294027471408e-05
aF4.2928417968749944e-08
aF1.7065974914467186e-07
aF5.565704371175446e-12
aF2.5949267578134853e-11
aF8.54296874999997e-08
aF3.2818270030863945e-08
aa(lp22
F2.2787065880039824e-06
aF1.0615559783599146e-05
aF1.061555978359914e-05
aF1.5191377253359883e-05
aF1.5195206508899925e-05
aF5.1058480459581555e-05
aF1.5222733629459954e-05
aF1.0615559783599146e-05
aF1.5195206508899925e-05
aa(lp23
F0.060674730900905444
aF0.1598544200801631
aF0.06237389527402931
aF0.14975527019153492
aF0.03590658868727793
aF0.14584091068957675
aF0.1371249685595548
aF0.16276425720649623
aF0.022438547055472977
aa(lp24
F0.003365782058320947
aF0.0036380404660911816
aF1.7205373735969827e-06
aF0.0227454599702116
aF7.697363494023297e-10
aF3.873373563365145e-08
aF0.00363804046609118
aF0.02243854705547298
aF2.473039171390238e-07
aa(lp25
F1.5195206508899925e-05
aF7.475485166976112e-06
aF7.475485166976112e-06
aF0.0013164223223715507
aF1.259541591105642e-05
aF7.658772068937225e-06
aF1.5195206508899925e-05
aF1.5195206508899925e-05
aF8.13117346455871e-06
aa(lp26
F0.12870941616656378
aF0.1550256156337619
aF0.14127412713044937
aF0.1126519041590793
aF0.05178376514147931
aF0.09729190415907929
aF0.05546357206376115
aF0.17194745686736926
aF0.038875707344713184
aa(lp27
F4.334228628573869e-13
aF1.2506906250071726e-07
aF2.2513315290405228e-12
aF2.277832455946561e-22
aF1.250690625007172e-07
aF1.250690625007172e-07
aF1.2506906250071726e-07
aF3.7689989204294475e-08
aF1.2506906250071726e-07
aa.